ccopy_reg
_reconstructor
p0
(cnl_lib.Concepts
Concepts
p1
c__builtin__
object
p2
Ntp3
Rp4
(dp5
S'count'
p6
I1
sS'typeName'
p7
S'NVPChunks'
p8
sS'name'
p9
S'NVPChunk'
p10
sS'cd'
p11
(dp12
S'/Users/morrj140/Development/GitRepository/DirCrawler/Examples/example.pdf'
p13
g0
(g1
g2
Ntp14
Rp15
(dp16
g6
I1
sg7
S'Document'
p17
sg9
S'/Users/morrj140/Development/GitRepository/DirCrawler/Examples/example.pdf'
p18
sg11
(dp19
sbsS'/Users/morrj140/Development/GitRepository/DirCrawler/Examples/exaple.docx'
p20
g0
(g1
g2
Ntp21
Rp22
(dp23
g6
I1
sg7
S'Document'
p24
sg9
S'/Users/morrj140/Development/GitRepository/DirCrawler/Examples/exaple.docx'
p25
sg11
(dp26
sbsS'/Users/morrj140/Development/GitRepository/DirCrawler/Examples/example.xlsx'
p27
g0
(g1
g2
Ntp28
Rp29
(dp30
g6
I1
sg7
S'Document'
p31
sg9
S'/Users/morrj140/Development/GitRepository/DirCrawler/Examples/example.xlsx'
p32
sg11
(dp33
sbsS'/Users/morrj140/Development/GitRepository/DirCrawler/Examples/example.pptx'
p34
g0
(g1
g2
Ntp35
Rp36
(dp37
g6
I1
sg7
S'Document'
p38
sg9
S'/Users/morrj140/Development/GitRepository/DirCrawler/Examples/example.pptx'
p39
sg11
(dp40
sbssb.