(dp0
Vbr_278.csv
p1
S'Eliminate clearing accounts,[4.1.4.7] Eliminate clearing accounts'
p2
sVbr_257.csv
p3
S'Enable data transfer and auto-reconciliation (UI t-log),[1.6.1.5] Enable data transfer and auto-reconciliation (UI t-log)'
p4
sVbr_76.csv
p5
S'Generate FI008 CoBranded CC'
p6
sVbr_226.csv
p7
S'Run report providing completeness controls on inbound and outbound transactions (UI),[5.1.3.1] Run report providing completeness controls on inbound and outbound transactions (UI)'
p8
sVbr_139.csv
p9
S'Aggregate and update inventory management systems (as done today with Simba),[6.1.2.1] Aggregate and update inventory management systems (as done today with Simba)'
p10
sVbr_98.csv
p11
S'Generate Herbie Item Maintenance,[1.1.3.21] Generate Herbie Item Maintenance'
p12
sVbr_164.csv
p13
S'Post Transaction Edit Type,[3.1.4.4] Post Transaction Edit Type'
p14
sVbr_333.csv
p15
S'Process SIMBA,[8.4.1.9] Process Flora'
p16
sVbr_59.csv
p17
S'Configure Tender exceptions,[9.1.2.3] Configure Tender exceptions'
p18
sVbr_26.csv
p19
S'Include MPM in master data (UI t-log),[1.4.7.3] Include MPM in master data (UI t-log)'
p20
sVbr_102.csv
p21
S'Generate Location Statistics,[1.1.3.25] Generate Location Statistics'
p22
sVbr_7.csv
p23
S'Create a Balance Sheet Table (UI),[1.1.1.5] Create a Balance Sheet Table (UI)'
p24
sVbr_367.csv
p25
S'NUM SPRINTS,'
p26
sVbr_271.csv
p27
S'Identify and communicate variances in reconciliation between other variances (as noted by system) (UI),[4.1.3.8] Identify and communicate variances in reconciliation between other variances (as noted by system) (UI)'
p28
sVbr_246.csv
p29
S'Generate KPI report: Exceptions created (UI),[5.2.3.1] Generate KPI report: Exceptions created (UI)'
p30
sVbr_126.csv
p31
S'Validate Summary matches Detail,[3.1.5.1] Validate Summary matches Detail'
p32
sVbr_17.csv
p33
S'Identify Lodging (UI maintenance table),[1.4.4.3] Identify Lodging (UI maintenance table)'
p34
sVbr_189.csv
p35
S'Unique Guest ID across systems must identify: RRN/CC Token to identify Guest (duplicate?) (UI t-log),[1.4.2.1] Unique Guest ID across systems must identify: RRN/CC Token to identify Guest (duplicate?) (UI t-log)'
p36
sVbr_3.csv
p37
S'Add Transaction Type Mapping to Interface (UI),[2.3.4.3] Add Transaction Type Mapping to Interface (UI)'
p38
sVbr_366.csv
p39
S'AVERAGE TEAM VELOCITY,'
p40
sVbr_326.csv
p41
S'Process Honeymoon Registry,[8.4.1.6] Process Honeymoon Registry'
p42
sVbr_272.csv
p43
S'Solution must clearly present variances in reconciliation data fields for ease of use to enable less research/manual time (UI),[4.1.4.1] Solution must clearly present variances in reconciliation data fields for ease of use to enable less research/manual time (UI)'
p44
sVbr_49.csv
p45
S'Post Taxes part of Outbound Batch,[3.1.7.3] Post Taxes part of Outbound Batch'
p46
sVbr_314.csv
p47
S'Ensure that controls are in place to allign  all test sets  with business requirements,[6.2.2.3] Ensure that controls are in place to allign  all test sets  with business requirements'
p48
sVbr_329.csv
p49
S'Process WDW Merch Clarity"'
p50
sVbr_97.csv
p51
S'Generate Legacy Item Maintenance,[1.1.3.20] Generate Legacy Item Maintenance'
p52
sVbr_136.csv
p53
S'Provide notification of GL status exception (UI),[3.2.3.4] Provide notification of GL status exception (UI)'
p54
sVbr_293.csv
p55
S'Provide for error cleansing by Product (UI),[9.2.3.3] Provide for error cleansing by Product (UI)'
p56
sVbr_225.csv
p57
S'Create report for Financial Variances Over a Period (Custom Defined) (UI),[5.1.2.4] Create report for Financial Variances Over a Period (Custom Defined) (UI)'
p58
sVbr_244.csv
p59
S'Generate KPI report: Control total of GL postings (UI),[5.2.2.3] Generate KPI report: Control total of GL postings (UI)'
p60
sVbr_28.csv
p61
S'Produce a Transaction Log (UI),[1.1.2.2] Produce a Transaction Log (UI)'
p62
sVbr_22.csv
p63
S'Identify Ticketing (UI maintenance table),[1.4.4.8] Identify Ticketing (UI maintenance table)'
p64
sVbr_194.csv
p65
S'Provide/generate a Guest ID to track transactions at the Guest level FOH to CDR,[8.3.2.1] Provide/generate a Guest ID to track transactions at the Guest level FOH to CDR'
p66
sVbr_263.csv
p67
S'Enable reconciliation by Terminal/Store Deposits,[4.1.2.7] Enable reconciliation by Terminal/Store Deposits'
p68
sVbr_351.csv
p69
S'Send all details to SAP,[1.1.4.4] Send all details to SAP'
p70
sVbr_318.csv
p71
S'"Enable shared data access in Financial Services Layer across APP, Billing, Entitle to minimize reconciliation requirements as data is shifted within the Financial Services Layer","[8.2.1.2] Enable shared data access in Financial Services Layer across APP, Billing, Entitle to minimize reconciliation requirements as data is shifted within the Financial Services Layer"'
p72
sVbr_108.csv
p73
S'Generate Reference Location Data,[1.1.3.31] Generate Reference Location Data'
p74
sVbr_103.csv
p75
S'Generate Clarity Item Maintenance,[1.1.3.26] Generate Clarity Item Maintenance'
p76
sVbr_73.csv
p77
S'Generate FI008 CoBranded CC'
p78
sVbr_266.csv
p79
S'Identify and communicate variances in reconciliation between FOH to POS  (UI),[4.1.3.3] Identify and communicate variances in reconciliation between FOH to POS  (UI)'
p80
sVbr_336.csv
p81
S'Process Cashless Arcade,#REF!'
p82
sVbr_47.csv
p83
S'Verify correct Tax rate (pass from FOH),[3.1.7.1] Verify correct Tax rate (pass from FOH)'
p84
sVbr_175.csv
p85
S'Ability to view business rules (UI),[1.3.4.1] Ability to view business rules (UI)'
p86
sVbr_132.csv
p87
S'Process Batch to Appropriate Interface based on Business Rules,[3.2.2.3] Process Batch to Appropriate Interface based on Business Rules'
p88
sVbr_52.csv
p89
S'Handle timing differences due to various system scenarios (duplicate?),[8.5.3.1] Handle timing differences due to various system scenarios (duplicate?)'
p90
sVbr_281.csv
p91
S'Enable reconciliation by Hotel Charges (UI),[4.1.2.2] Enable reconciliation by Hotel Charges (UI)'
p92
sVbr_349.csv
p93
S'Consume gratuities information from multiple FOH systems and translate into a common format via a Gratuities Table (UI),[1.1.1.3] Consume gratuities information from multiple FOH systems and translate into a common format via a Gratuities Table (UI)'
p94
sVbr_190.csv
p95
S'Unique Guest ID across systems must identify: One ID/MDX Account (duplicate?) (UI t-log),[1.4.2.2] Unique Guest ID across systems must identify: One ID/MDX Account (duplicate?) (UI t-log)'
p96
sVbr_267.csv
p97
S'Identify and communicate variances in reconciliation between FOH to Reporting/CDR  (UI),[4.1.3.4] Identify and communicate variances in reconciliation between FOH to Reporting/CDR  (UI)'
p98
sVbr_312.csv
p99
S'Sandbox system data needs to be refreshed at certain determined frequencie to ensure that relevant data feeds are utilized for necessary testing.,[6.2.2.1] Sandbox system data needs to be refreshed at certain determined frequencie to ensure that relevant data feeds are utilized for necessary testing.'
p100
sVbr_260.csv
p101
S'Enable reconciliation by CC Settlement,[4.1.2.4] Enable reconciliation by CC Settlement'
p102
sVbr_170.csv
p103
S'Post and reccord to Balance Sheet  ,[3.1.9.2] Post and reccord to Balance Sheet  '
p104
sVbr_306.csv
p105
S'Provide a reporting solution to enable: MPM level data fields for ad hoc and daily analytics (UI),[5.3.2.1] Provide a reporting solution to enable: MPM level data fields for ad hoc and daily analytics (UI)'
p106
sVbr_112.csv
p107
S'Capture Media Merchandise Data,[1.5.2.1] Capture Media Merchandise Data'
p108
sVbr_360.csv
p109
S'External (UI t-log),[8.5.1.4] External (UI t-log)'
p110
sVbr_27.csv
p111
S'Produce a System Activity Log (UI),[1.1.2.1] Produce a System Activity Log (UI)'
p112
sVbr_193.csv
p113
S'Guest ID must include: One ID/MDX Account (UI t-log),[1.6.2.2] Guest ID must include: One ID/MDX Account (UI t-log)'
p114
sVbr_313.csv
p115
S'Enable a place for test sets (developed from buiness requirements per release) to be mapped and tracked to each relevant component of AE system (and other systems integrated for testing) (UI)  ex. ALM with SAP testing releases,[6.2.2.2] Enable a place for test sets (developed from buiness requirements per release) to be mapped and tracked to each relevant component of AE system (and other systems integrated for testing) (UI)  ex. ALM with SAP testing releases'
p116
sVbr_57.csv
p117
S'Configure Product exceptions,[9.1.2.1] Configure Product exceptions'
p118
sVbr_297.csv
p119
S'Return bad/unfixable data to FOH based on compliance rules,[9.3.1.3] Return bad/unfixable data to FOH based on compliance rules'
p120
sVbr_70.csv
p121
S'Update SKU Mapping: MPM issue and/or Account (UI),[2.3.4.2] Update SKU Mapping: MPM issue and/or Account (UI)'
p122
sVbr_32.csv
p123
S'Provide a mechanism to identify and track access to secured areas within the solution that contain sensitive data,[7.2.1.1] Provide a mechanism to identify and track access to secured areas within the solution that contain sensitive data'
p124
sVbr_109.csv
p125
S'Generate SIMBA Sales,[1.1.3.32] Generate SIMBA Sales'
p126
sVbr_88.csv
p127
S'Generate Aspect Merch Extract WDW,[1.1.3.11] Generate Aspect Merch Extract WDW'
p128
sVbr_16.csv
p129
S'Identify F&B (tipped vs. non-tipped) (UI maintenance table),[1.4.4.2] Identify F&B (tipped vs. non-tipped) (UI maintenance table)'
p130
sVbr_347.csv
p131
S'Process Special Events,[8.4.1.18] Process ESPN Micros'
p132
sVbr_231.csv
p133
S'Provide current Error Processing (duplicate?) (UI),[5.1.5.2] Provide current Error Processing (duplicate?) (UI)'
p134
sVbr_180.csv
p135
S'Unique Transaction Identifier across systems must identify: Date-Store-Terminal-Check (Merchandise & F&B) (UI t-log),[1.4.1.2] Unique Transaction Identifier across systems must identify: Date-Store-Terminal-Check (Merchandise & F&B) (UI t-log)'
p136
sVbr_110.csv
p137
S'Generate SoundScan,[1.1.3.33] Generate SoundScan'
p138
sVbr_64.csv
p139
S'Configure Deposit vs Sales Check exceptions,[9.1.2.8] Configure Deposit vs Sales Check exceptions'
p140
sVbr_96.csv
p141
S'Generate DTI Reconciliation ,[1.1.3.19] Generate DTI Reconciliation '
p142
sVbr_137.csv
p143
S'Match batch to index unique transaction ID (UI t-log),[3.2.3.5] Match batch to index unique transaction ID (UI t-log)'
p144
sVbr_199.csv
p145
S'Separate electronic and nonelectronic cash bag data (UI),[1.4.6.2] Separate electronic and nonelectronic cash bag data (UI)'
p146
sVbr_253.csv
p147
S'Enable cash bag recon variance reporting (electronic vs. non electronic) (UI),[5.1.8.1] Enable cash bag recon variance reporting (electronic vs. non electronic) (UI)'
p148
sVbr_128.csv
p149
S'Provide ability to match summary to details (dupe?),[3.1.5.3] Provide ability to match summary to details (dupe?)'
p150
sVbr_323.csv
p151
S'Process FOH F&B data,[8.4.1.3] Process FOH F&B data'
p152
sVbr_218.csv
p153
S'Create report for Outbound Interface Processing Status (UI),[5.1.1.1] Create report for Outbound Interface Processing Status (UI)'
p154
sVbr_242.csv
p155
S'Generate KPI report Prior day  processing complete (UI),[5.2.1.5] Generate KPI report Prior day  processing complete (UI)'
p156
sVbr_195.csv
p157
S'"Link other data fields for Guest Personalization, revenue management, and CDR for Guest ID","[8.3.2.2] Link other data fields for Guest Personalization, revenue management, and CDR for Guest ID"'
p158
sVbr_122.csv
p159
S'Create FI010 for Payment Settlement (duplicate?),[3.1.1.2] Create FI010 for Payment Settlement (duplicate?)'
p160
sVbr_160.csv
p161
S'Provide an intercompany accounting control component to facilitate validation procedures,[2.2.4.1] Provide an intercompany accounting control component to facilitate validation procedures'
p162
sVbr_140.csv
p163
S'Identify Inventory consumption data based on sales,[6.1.2.2] Identify Inventory consumption data based on sales'
p164
sVbr_87.csv
p165
S'Generate Aspect Food Extract DLR,[1.1.3.10] Generate Aspect Food Extract DLR'
p166
sVbr_209.csv
p167
S'Change prices in bulk (UI),[6.1.1.4] Change prices in bulk (UI)'
p168
sVbr_252.csv
p169
S'Generate KPI report: TBD- after meetings week of 2/8 - 1/10 - Jennifer J to let us know by end of next week (UI - ?),[5.2.6.1] Generate KPI report: TBD- after meetings week of 2/8 - 1/10 - Jennifer J to let us know by end of next week (UI - ?)'
p170
sVbr_322.csv
p171
S'Process FOH Merchandise data,[8.4.1.2] Process FOH Merchandise data'
p172
sVbr_35.csv
p173
S'Provid Add/update payment authorization keys,[7.2.2.2] Provid Add/update payment authorization keys'
p174
sVbr_6.csv
p175
S'Map transaction types from multiple FOH system to GL Groups (requirement for GL posting),[1.1.1.4] Map transaction types from multiple FOH system to GL Groups (requirement for GL posting)'
p176
sVbr_99.csv
p177
S'Generate Inbound Item Maintenance,[1.1.3.22] Generate Inbound Item Maintenance'
p178
sVbr_295.csv
p179
S'Provide user alert when there is bad data to review (UI),[9.3.1.1] Provide user alert when there is bad data to review (UI)'
p180
sVbr_287.csv
p181
S'Resolve bad data to a general SAP suspense account to be addressed,[9.2.1.2] Resolve bad data to a general SAP suspense account to be addressed'
p182
sVbr_221.csv
p183
S'Create report for Inbound Interface Processing Errors (UI),[5.1.1.4] Create report for Inbound Interface Processing Errors (UI)'
p184
sVbr_200.csv
p185
S'Accept Feed for Cash Systems,[3.1.2.1] Accept Feed for Cash Systems'
p186
sVbr_46.csv
p187
S'"Validate Account Mapping (shipping, Tax, etc.) (UI exceptions)","[3.1.3.4] Validate Account Mapping (shipping, Tax, etc.) (UI exceptions)"'
p188
sVbr_344.csv
p189
S'"Process WDW Food'
p190
sVbr_92.csv
p191
S'Generate D3 Item Maintenance (RTP Only Items),[1.1.3.15] Generate D3 Item Maintenance (RTP Only Items)'
p192
sVbr_133.csv
p193
S'Validate Submission of Batch from Accounting Engine,[3.2.3.1] Validate Submission of Batch from Accounting Engine'
p194
sVbr_39.csv
p195
S'"Provide a user access mechanism to restrict access to screens, reports, and functionality based on rules of role granted (UI)","[7.1.1.1] Provide a user access mechanism to restrict access to screens, reports, and functionality based on rules of role granted (UI)"'
p196
sVbr_67.csv
p197
S'Perform Inbound Trans Total check - Dollars,[9.1.3.2] Perform Inbound Trans Total check - Dollars'
p198
sVbr_265.csv
p199
S'Identify and communicate variances in reconciliation between FOH to SAP  (UI),[4.1.3.2] Identify and communicate variances in reconciliation between FOH to SAP  (UI)'
p200
sVbr_134.csv
p201
S'Validate Acceptance of File by GL (SAP),[3.2.3.2] Validate Acceptance of File by GL (SAP)'
p202
sVbr_95.csv
p203
S'Generate DLR Heimlich Foods,[1.1.3.18] Generate DLR Heimlich Foods'
p204
sVbr_163.csv
p205
S'Post Unique Transaction ID,[3.1.4.3] Post Unique Transaction ID'
p206
sVbr_43.csv
p207
S'Enable Data Matching,[1.1.2.4] Enable Data Matching'
p208
sVbr_169.csv
p209
S'Post and record to Income Statement,[3.1.9.1] Post and record to Income Statement'
p210
sVbr_280.csv
p211
S'Enable reconciliation by Guest Ledger (UI),[4.1.2.1] Enable reconciliation by Guest Ledger (UI)'
p212
sVbr_213.csv
p213
S'Verify Refund doesn\xcdt exceed original transaction,[3.1.8.1] Verify Refund doesn\xcdt exceed original transaction'
p214
sVbr_181.csv
p215
S'Unique Transaction Identifier across systems must identify: Date-Ticket-Group-Terminal-Transaction (UI t-log),[1.4.1.3] Unique Transaction Identifier across systems must identify: Date-Ticket-Group-Terminal-Transaction (UI t-log)'
p216
sVbr_42.csv
p217
S'Provide a mechanism to report on user clicks and edits to allow for audit and troubleshooting (click screen tracking or edit tracking?) (UI),[7.1.2.1] Provide a mechanism to report on user clicks and edits to allow for audit and troubleshooting (click screen tracking or edit tracking?) (UI)'
p218
sVbr_207.csv
p219
S'Change item price (UI),[6.1.1.2] Change item price (UI)'
p220
sVbr_10.csv
p221
S'Create Other Misc. Tables (UI),[1.1.1.8] Create Other Misc. Tables (UI)'
p222
sVbr_184.csv
p223
S'Transaction ID must include: Date-Ticket-Group-Terminal-Transaction (UI t-log),[1.6.1.3] Transaction ID must include: Date-Ticket-Group-Terminal-Transaction (UI t-log)'
p224
sVbr_212.csv
p225
S'Integration with GoldData,[1.5.9.1] Integration with GoldData'
p226
sVbr_330.csv
p227
S'"Process Clarity'
p228
sVbr_56.csv
p229
S'Perform Line Items to Total Type Checks,[9.1.1.4] Perform Line Items to Total Type Checks'
p230
sVbr_5.csv
p231
S'"Consume SKU, Charge Code, MPM, & WBS Element from native FOH formats and translate into common format","[1.1.1.2] Consume SKU, Charge Code, MPM, & WBS Element from native FOH formats and translate into common format"'
p232
sVbr_51.csv
p233
S'Check for data integrity,[8.1.1.2] Check for data integrity'
p234
sVbr_153.csv
p235
S'Transaction Edit Type in File (UI),[2.3.3.1] Transaction Edit Type in File (UI)'
p236
sVbr_241.csv
p237
S'Generate KPI report Estimated time to process (UI),[5.2.1.4] Generate KPI report Estimated time to process (UI)'
p238
sVbr_107.csv
p239
S'Generate PCI Security Logging,[1.1.3.30] Generate PCI Security Logging'
p240
sVbr_302.csv
p241
S'Generate report: Line of Business Analytics (UI),[5.3.1.2] Generate report: Line of Business Analytics (UI)'
p242
sVbr_362.csv
p243
S'Simba (UI t-log),[8.5.1.6] Simba (UI t-log)'
p244
sVbr_215.csv
p245
S'Report at Summary and Transaction Level to CDR,[4.2.1.2] Report at Summary and Transaction Level to CDR'
p246
sVbr_254.csv
p247
S'Configure Batch Job by Inbound System,[3.2.1.1] Configure Batch Job by Inbound System'
p248
sVbr_116.csv
p249
S'"Send data to Food and Beverage Costing, Ingredients (NALA/Ariel)","[1.5.6.1] Send data to Food and Beverage Costing, Ingredients (NALA/Ariel)"'
p250
sVbr_364.csv
p251
S','
p252
sVbr_345.csv
p253
S'Process WDW Food Clarity",#REF!'
p254
sVbr_53.csv
p255
S'Perform Balance Check,[9.1.1.1] Perform Balance Check'
p256
sVbr_245.csv
p257
S'Generate KPI report: GL Status of SAP FI batches (UI),[5.2.2.4] Generate KPI report: GL Status of SAP FI batches (UI)'
p258
sVbr_106.csv
p259
S'Generate OCMM,[1.1.3.29] Generate OCMM'
p260
sVbr_81.csv
p261
S'Generate FI062 DEP Summ to send to SAP,[1.1.3.4] Generate FI062 DEP Summ to send to SAP'
p262
sVbr_146.csv
p263
S'Submit requests for leader approval,[1.2.1.4] Submit requests for leader approval'
p264
sVbr_141.csv
p265
S'Identify Inventory with damages report,[6.1.2.3] Identify Inventory with damages report'
p266
sVbr_86.csv
p267
S'Generate other SAP file types as needed by design and detailed business requirements ,[1.1.3.9] Generate other SAP file types as needed by design and detailed business requirements '
p268
sVbr_174.csv
p269
S'Calculate metrics based on rules to define metric data points,[1.3.3.1] Calculate metrics based on rules to define metric data points'
p270
sVbr_149.csv
p271
S'Transaction edit functionality must identify: Modification(s) to transaction (UI t-log),[1.4.3.2] Transaction edit functionality must identify: Modification(s) to transaction (UI t-log)'
p272
sVbr_334.csv
p273
S'Process Flora,[8.4.1.10] Process Mom'
p274
sVbr_229.csv
p275
S'Send automatic notifications of exceptions or key variances as defined by the business (UI - ?),[5.1.4.2] Send automatic notifications of exceptions or key variances as defined by the business (UI - ?)'
p276
sVbr_71.csv
p277
S'Tie account mapping rules to various transaction types,[1.3.2.1] Tie account mapping rules to various transaction types'
p278
sVbr_232.csv
p279
S'Create report Exception Report by date (UI),[5.1.6.1] Create report Exception Report by date (UI)'
p280
sVbr_33.csv
p281
S'Analyze transaction trends to determine length of time necessary to store certain data fields,[7.2.1.2] Analyze transaction trends to determine length of time necessary to store certain data fields'
p282
sVbr_131.csv
p283
S'Validate Data structure/integrity of batch (UI exceptions),[3.2.2.2] Validate Data structure/integrity of batch (UI exceptions)'
p284
sVbr_178.csv
p285
S'"Validate Transaction ID, Guest ID","[2.3.2.3] Validate Transaction ID, Guest ID"'
p286
sVbr_90.csv
p287
S'Generate Aspect Food Extract WDW,[1.1.3.13] Generate Aspect Food Extract WDW'
p288
sVbr_201.csv
p289
S'Report Cash by Locations with Bag detail (UI),[3.1.2.2] Report Cash by Locations with Bag detail (UI)'
p290
sVbr_216.csv
p291
S'Report on variances between tables with expected result and system fields,[4.2.2.1] Report on variances between tables with expected result and system fields'
p292
sVbr_327.csv
p293
S'Process Cast Serving Cast,"[8.4.1.7] Process Clarity'
p294
sVbr_202.csv
p295
S'Provide Bag Correction or Manual Entry (UI),[3.1.2.3] Provide Bag Correction or Manual Entry (UI)'
p296
sVbr_236.csv
p297
S'Create report Tender report by date (UI),[5.1.7.1] Create report Tender report by date (UI)'
p298
sVbr_48.csv
p299
S'Verify Account to Post Tax,[3.1.7.2] Verify Account to Post Tax'
p300
sVbr_45.csv
p301
S'Validate Amount of Entry to Transaction (UI exceptions),[3.1.3.3] Validate Amount of Entry to Transaction (UI exceptions)'
p302
sVbr_188.csv
p303
S'"Provide/generate/pass a Unique ID to note transaction level data for data flow FOH to CDR - ""end to end traceability""","[8.3.1.1] Provide/generate/pass a Unique ID to note transaction level data for data flow FOH to CDR - ""end to end traceability"""'
p304
sVbr_58.csv
p305
S'Configure Location exceptions,[9.1.2.2] Configure Location exceptions'
p306
sVbr_198.csv
p307
S'Ops Team has ability to directly enter bag number capture field (UI),[1.4.6.1] Ops Team has ability to directly enter bag number capture field (UI)'
p308
sVbr_156.csv
p309
S'Alert when a BDC session is created or any potential errors (UI t-log),[1.3.1.2] Alert when a BDC session is created or any potential errors (UI t-log)'
p310
sVbr_324.csv
p311
S'Process FOH other data,[8.4.1.4] Process FOH other data'
p312
sVbr_283.csv
p313
S'Edit and correct exceptions and send for processing (UI),[4.2.3.2] Edit and correct exceptions and send for processing (UI)'
p314
sVbr_8.csv
p315
S'Create a Fees Table (UI),[1.1.1.6] Create a Fees Table (UI)'
p316
sVbr_206.csv
p317
S'Import Charge Codes (UI),[1.4.8.2] Import Charge Codes (UI)'
p318
sVbr_301.csv
p319
S'Generate report: Sales Analytics (UI),[5.3.1.1] Generate report: Sales Analytics (UI)'
p320
sVbr_123.csv
p321
S'Integrate with APP to enable research,[3.1.1.3] Integrate with APP to enable research'
p322
sVbr_129.csv
p323
S'Create Batch File Index listing all unique transaction IDs in the batch,[3.1.5.4] Create Batch File Index listing all unique transaction IDs in the batch'
p324
sVbr_355.csv
p325
S'Allow input configuration through a website UI to be used by the business - needs to be decomposed (UI),[6.4.1.1] Allow input configuration through a website UI to be used by the business - needs to be decomposed (UI)'
p326
sVbr_61.csv
p327
S'Configure Tax Check exceptions,[9.1.2.5] Configure Tax Check exceptions'
p328
sVbr_115.csv
p329
S'Integrate with Merchandise Inventory (Simba),[1.5.5.1] Integrate with Merchandise Inventory (Simba)'
p330
sVbr_37.csv
p331
S'"Provide capability to be frozen per SOX - ""System Freeze Dates""","[7.3.1.1] Provide capability to be frozen per SOX - ""System Freeze Dates"""'
p332
sVbr_172.csv
p333
S'Include the Tax Jurisdiction field per transaction (necessary for automated journal entries) (UI t-log),[6.5.5.2] Include the Tax Jurisdiction field per transaction (necessary for automated journal entries) (UI t-log)'
p334
sVbr_331.csv
p335
S'Process WDW Clarity'
p336
sVbr_321.csv
p337
S'Process FOH Lodging data,[8.4.1.1] Process FOH Lodging data'
p338
sVbr_286.csv
p339
S'Pull Bad data from files and separate for review (duplicate?),[9.2.1.1] Pull Bad data from files and separate for review (duplicate?)'
p340
sVbr_166.csv
p341
S'Process credit of payment,[3.1.8.3] Process credit of payment'
p342
sVbr_259.csv
p343
S'Reconcile at the summary level between systems  (UI),[4.1.1.2] Reconcile at the summary level between systems  (UI)'
p344
sVbr_220.csv
p345
S'Create report for Inbound Interface Processing Status (UI),[5.1.1.3] Create report for Inbound Interface Processing Status (UI)'
p346
sVbr_100.csv
p347
S'Generate Loop Back Data,[1.1.3.23] Generate Loop Back Data'
p348
sVbr_173.csv
p349
S'Include the Trading Partner field per transaction (necessary for automated journal entries) (UI t-log),[6.5.5.3] Include the Trading Partner field per transaction (necessary for automated journal entries) (UI t-log)'
p350
sVbr_72.csv
p351
S'"Generate FI008 DCL Revenue to send to SAP'
p352
sVbr_111.csv
p353
S'Capture Fraud Detection Data,[1.5.1.1] Capture Fraud Detection Data'
p354
sVbr_66.csv
p355
S'Perform Inbound Qty Trans Total check,[9.1.3.1] Perform Inbound Qty Trans Total check'
p356
sVbr_18.csv
p357
S'Identify Events (UI maintenance table),[1.4.4.4] Identify Events (UI maintenance table)'
p358
sVbr_237.csv
p359
S'Create report Tender report by type (UI),[5.1.7.2] Create report Tender report by type (UI)'
p360
sVbr_279.csv
p361
S'Provide auto correction options for common errors (UI),[4.1.4.8] Provide auto correction options for common errors (UI)'
p362
sVbr_75.csv
p363
S'Generate FI008 Cast Serving Cast","[1.1.3.1] Generate FI008 DCL Revenue to send to SAP'
p364
sVbr_127.csv
p365
S'Send File out interface,[3.1.5.2] Send File out interface'
p366
sVbr_1.csv
p367
S'Convert necessary outbound files into SAP format to allow for SAP consumption,[1.1.1.1] Convert necessary outbound files into SAP format to allow for SAP consumption'
p368
sVbr_118.csv
p369
S'Solution must have the capability to integrate with Other New Downstream Systems as they come online (enable future integrations/connections),[1.5.7.2] Solution must have the capability to integrate with Other New Downstream Systems as they come online (enable future integrations/connections)'
p370
sVbr_317.csv
p371
S'Provide efficient mapping and data layers to reduce volume of reconciliations,[8.2.1.1] Provide efficient mapping and data layers to reduce volume of reconciliations'
p372
sVbr_222.csv
p373
S'Create report for Report checking for duplicate transactions/interfaces (UI),[5.1.1.5] Create report for Report checking for duplicate transactions/interfaces (UI)'
p374
sVbr_335.csv
p375
S'Process Mom,[8.4.1.11] Process Cashless Arcade'
p376
sVbr_332.csv
p377
S'Process WDW Merch Clarity",#REF!'
p378
sVbr_84.csv
p379
S'Generate FI095 Revenue to send to SAP,[1.1.3.7] Generate FI095 Revenue to send to SAP'
p380
sVbr_34.csv
p381
S'Create administrator rules that enable controls around data shared,[7.2.2.1] Create administrator rules that enable controls around data shared'
p382
sVbr_143.csv
p383
S'Submit requests for leader approval,[1.2.1.1] Submit requests for leader approval'
p384
sVbr_250.csv
p385
S'Generate KPI report: Amounts queued to settle (UI),[5.2.4.2] Generate KPI report: Amounts queued to settle (UI)'
p386
sVbr_292.csv
p387
S'Provide for error cleansing by Line of Business (UI),[9.2.3.2] Provide for error cleansing by Line of Business (UI)'
p388
sVbr_276.csv
p389
S'Handle data recon timing differences due to error correction,[4.1.4.5] Handle data recon timing differences due to error correction'
p390
sVbr_60.csv
p391
S'Configure Translation exceptions,[9.1.2.4] Configure Translation exceptions'
p392
sVbr_305.csv
p393
S'Generate report: Location Analytics (UI),[5.3.1.6] Generate report: Location Analytics (UI)'
p394
sVbr_85.csv
p395
S'Generate FI071 to send to SAP,[1.1.3.8] Generate FI071 to send to SAP'
p396
sVbr_142.csv
p397
S'Track (and update) each transaction at the item/SKU level (as done today for inventory management),[6.1.1.1] Track (and update) each transaction at the item/SKU level (as done today for inventory management)'
p398
sVbr_350.csv
p399
S'Enable the review of spend data for Onsite and Offsite Guests (UI),[1.6.2.3] Enable the review of spend data for Onsite and Offsite Guests (UI)'
p400
sVbr_240.csv
p401
S'Generate KPI report Files backlogged (UI),[5.2.1.3] Generate KPI report Files backlogged (UI)'
p402
sVbr_288.csv
p403
S'Remove duplicates from file prior to processing,[9.2.1.3] Remove duplicates from file prior to processing'
p404
sVbr_365.csv
p405
S'TOTAL POINTS,'
p406
sVbr_319.csv
p407
S'Provide standardized and thus reduce number of FOH SAP Interfaces,[8.2.1.3] Provide standardized and thus reduce number of FOH SAP Interfaces'
p408
sVbr_77.csv
p409
S'Generate FI008 Dep Non-Cash'
p410
sVbr_29.csv
p411
S'Enable admin rights to modify account mapping configuration (UI),[1.1.2.3] Enable admin rights to modify account mapping configuration (UI)'
p412
sVbr_40.csv
p413
S'"Requires various levels of approval, depending on level of access requested and user role (UI)","[7.1.1.2] Requires various levels of approval, depending on level of access requested and user role (UI)"'
p414
sVbr_124.csv
p415
S'Provide for Online Payment Settlement,[3.1.1.4] Provide for Online Payment Settlement'
p416
sVbr_338.csv
p417
S'Process RTP Only Item Maintenance","[8.4.1.13] Process DLR Merch '
p418
sVbr_291.csv
p419
S'Provide for error cleansing by Location (UI),[9.2.3.1] Provide for error cleansing by Location (UI)'
p420
sVbr_341.csv
p421
S'Process DLR Merch Clarity ",[8.4.1.14] Process DLR Food'
p422
sVbr_328.csv
p423
S'Process WDW Clarity'
p424
sVbr_138.csv
p425
S'Summarize total and compare to Index list of Unique Transaction ID (UI),[3.2.3.6] Summarize total and compare to Index list of Unique Transaction ID (UI)'
p426
sVbr_204.csv
p427
S'Provide deposit and till management at the Terminal Level and Store Level Detail (and ability to select) (UI),[3.1.2.5] Provide deposit and till management at the Terminal Level and Store Level Detail (and ability to select) (UI)'
p428
sVbr_339.csv
p429
S'Process DLR Merch Clarity "'
p430
sVbr_31.csv
p431
S'Enable admin rights to modify account mapping configuration,[1.2.2.2] Enable admin rights to modify account mapping configuration'
p432
sVbr_340.csv
p433
S'"Process DLR Merch '
p434
sVbr_308.csv
p435
S'Provide a reporting solution to allow: Charge Code level data for ad hoc and daily Analytics (UI),[5.3.2.3] Provide a reporting solution to allow: Charge Code level data for ad hoc and daily Analytics (UI)'
p436
sVbr_14.csv
p437
S'Sync with Simba/other external systems multiple times daily,[1.2.3.3] Sync with Simba/other external systems multiple times daily'
p438
sVbr_298.csv
p439
S'Provide E-mail notifications of errors to business users (duplicate?),[9.3.2.1] Provide E-mail notifications of errors to business users (duplicate?)'
p440
sVbr_63.csv
p441
S'Configure Discount Check exceptions,[9.1.2.7] Configure Discount Check exceptions'
p442
sVbr_307.csv
p443
S'Provide a reporting solution to allow: SKU level data for ad hoc and daily Analytics (UI),[5.3.2.2] Provide a reporting solution to allow: SKU level data for ad hoc and daily Analytics (UI)'
p444
sVbr_311.csv
p445
S'"Provide a solution to allow: Unique Transaction ID linkage level of data (transaction level, linked to the Guest levels noted above) (UI t-log)","[5.3.3.3] Provide a solution to allow: Unique Transaction ID linkage level of data (transaction level, linked to the Guest levels noted above) (UI t-log)"'
p446
sVbr_150.csv
p447
S'Transaction edit functionality must: allow for Error Correction(s) (UI t-log),[1.4.3.3] Transaction edit functionality must: allow for Error Correction(s) (UI t-log)'
p448
sVbr_9.csv
p449
S'Create a Gift Card Table (UI),[1.1.1.7] Create a Gift Card Table (UI)'
p450
sVbr_361.csv
p451
S'CDR (UI t-log),[8.5.1.5] CDR (UI t-log)'
p452
sVbr_186.csv
p453
S'Transaction ID must include: iStrategy (system ID) (UI t-log),[1.6.1.6] Transaction ID must include: iStrategy (system ID) (UI t-log)'
p454
sVbr_243.csv
p455
S'Generate KPI report Number of GL postings within the accounting engine (UI),[5.2.2.1] Generate KPI report Number of GL postings within the accounting engine (UI)'
p456
sVbr_217.csv
p457
S'Perform system checks and report on exception variances are in report,[4.2.3.1] Perform system checks and report on exception variances are in report'
p458
sVbr_261.csv
p459
S'Enable reconciliation by Non-Cash Activity,[4.1.2.5] Enable reconciliation by Non-Cash Activity'
p460
sVbr_44.csv
p461
S'Validate Balance Entry (UI exceptions),[3.1.3.2] Validate Balance Entry (UI exceptions)'
p462
sVbr_325.csv
p463
S'Process DCL Micros,[8.4.1.5] Process DCL Micros'
p464
sVbr_337.csv
p465
S'"Process RTP'
p466
sVbr_74.csv
p467
S'Generate FI008 Dep Non-Cash'
p468
sVbr_119.csv
p469
S'Solution must connect with (DTI) Ticketing Interface,[1.5.8.1] Solution must connect with (DTI) Ticketing Interface'
p470
sVbr_239.csv
p471
S'Generate KPI report Time to process file (UI),[5.2.1.2] Generate KPI report Time to process file (UI)'
p472
sVbr_162.csv
p473
S'Post Transaction Guest ID,[3.1.4.2] Post Transaction Guest ID'
p474
sVbr_316.csv
p475
S'Provide end-user configurable dashboard for frequent screens and reports (including graphs and tables of User choice to show in AE home page upon login) (UI),[7.1.3.1] Provide end-user configurable dashboard for frequent screens and reports (including graphs and tables of User choice to show in AE home page upon login) (UI)'
p476
sVbr_224.csv
p477
S'Create report to identify Exception Items (UI),[5.1.2.3] Create report to identify Exception Items (UI)'
p478
sVbr_104.csv
p479
S'Generate Validation Unload,[1.1.3.27] Generate Validation Unload'
p480
sVbr_89.csv
p481
S'Generate Aspect Merch Extract DLR,[1.1.3.12] Generate Aspect Merch Extract DLR'
p482
sVbr_125.csv
p483
S'Provide for Offline Payment Settlement,[3.1.1.5] Provide for Offline Payment Settlement'
p484
sVbr_183.csv
p485
S'Transaction ID must include: Date-Store-Terminal-Check (Merchandise & F&B) (UI t-log),[1.6.1.2] Transaction ID must include: Date-Store-Terminal-Check (Merchandise & F&B) (UI t-log)'
p486
sVbr_238.csv
p487
S'Generate KPI report Number of files processed (UI),[5.2.1.1] Generate KPI report Number of files processed (UI)'
p488
sVbr_270.csv
p489
S'Identify and communicate variances in reconciliation between Terminal/Store Deposits to SAP (UI),[4.1.3.7] Identify and communicate variances in reconciliation between Terminal/Store Deposits to SAP (UI)'
p490
sVbr_13.csv
p491
S'Provide freezes to allow updates,[1.2.3.2] Provide freezes to allow updates'
p492
sVbr_277.csv
p493
S'Handle data recon timing differences due to dropped feeds,[4.1.4.6] Handle data recon timing differences due to dropped feeds'
p494
sVbr_282.csv
p495
S'Enable reconciliation by Hotel charges-participants (UI),[4.1.2.3] Enable reconciliation by Hotel charges-participants (UI)'
p496
sVbr_114.csv
p497
S'Send data to: PCS-Participant Contract System,[1.5.4.1] Send data to: PCS-Participant Contract System'
p498
sVbr_359.csv
p499
S'SAP (UI t-log),[8.5.1.3] SAP (UI t-log)'
p500
sVbr_154.csv
p501
S'Version record in Accounting Engine,[2.3.3.2] Version record in Accounting Engine'
p502
sVbr_269.csv
p503
S'Identify and communicate variances in reconciliation between ROH to related FOH folios (UI),[4.1.3.6] Identify and communicate variances in reconciliation between ROH to related FOH folios (UI)'
p504
sVbr_219.csv
p505
S'Create report for Outbound Interface Processing Errors (UI),[5.1.1.2] Create report for Outbound Interface Processing Errors (UI)'
p506
sVbr_20.csv
p507
S'Identify Participant (UI maintenance table),[1.4.4.6] Identify Participant (UI maintenance table)'
p508
sVbr_304.csv
p509
S'Generate report: Coupon Analytics (UI),[5.3.1.5] Generate report: Coupon Analytics (UI)'
p510
sVbr_54.csv
p511
S'Perform Location Checks,[9.1.1.2] Perform Location Checks'
p512
sVbr_65.csv
p513
S'Perform User Input Validation checks,[9.1.2.9] Perform User Input Validation checks'
p514
sVbr_19.csv
p515
S'Identify Groups (UI maintenance table),[1.4.4.5] Identify Groups (UI maintenance table)'
p516
sVbr_289.csv
p517
S'Provide auto correction options for common errors as defined by the business (duplicate?),[9.2.1.4] Provide auto correction options for common errors as defined by the business (duplicate?)'
p518
sVbr_25.csv
p519
S'Solve for CTAM in master data (UI t-log),[1.4.7.2] Solve for CTAM in master data (UI t-log)'
p520
sVbr_80.csv
p521
S'Generate FI012 Revenue to send to SAP,[1.1.3.3] Generate FI012 Revenue to send to SAP'
p522
sVbr_147.csv
p523
S'Submit requests for leader approval,[1.2.1.5] Submit requests for leader approval'
p524
sVbr_0.csv
p525
S'Level,Title'
p526
sVbr_346.csv
p527
S'Process ESPN Micros,[8.4.1.17] Process WDW Participant Charity'
p528
sVbr_41.csv
p529
S'Provide the option to enable user access restriction to the field level (UI),[7.1.1.3] Provide the option to enable user access restriction to the field level (UI)'
p530
sVbr_248.csv
p531
S'Generate KPI report: Exceptions turnover metrics (UI),[5.2.3.3] Generate KPI report: Exceptions turnover metrics (UI)'
p532
sVbr_24.csv
p533
S'Include Destination Geography field in master data (SAP field) (UI t-log),[1.4.7.1] Include Destination Geography field in master data (SAP field) (UI t-log)'
p534
sVbr_79.csv
p535
S'Generate FI010 EDC PCI to send to SAP,[1.1.3.2] Generate FI010 EDC PCI to send to SAP'
p536
sVbr_264.csv
p537
S'Identify and communicate variance items at the reconciliation levels  (UI),[4.1.3.1] Identify and communicate variance items at the reconciliation levels  (UI)'
p538
sVbr_144.csv
p539
S'Submit requests for leader approval,[1.2.1.2] Submit requests for leader approval'
p540
sVbr_83.csv
p541
S'Generate FI012c to send to SAP,[1.1.3.6] Generate FI012c to send to SAP'
p542
sVbr_21.csv
p543
S'Identify Wholesale (UI maintenance table),[1.4.4.7] Identify Wholesale (UI maintenance table)'
p544
sVbr_205.csv
p545
S'Import SKUs (duplicate?) (UI),[1.4.8.1] Import SKUs (duplicate?) (UI)'
p546
sVbr_356.csv
p547
S'Accept transaction into AE (accounting engine) through website UI - needs to be decomposed,[6.4.1.2] Accept transaction into AE (accounting engine) through website UI - needs to be decomposed'
p548
sVbr_30.csv
p549
S'Create different user levels of access based on role (UI),[1.2.2.1] Create different user levels of access based on role (UI)'
p550
sVbr_161.csv
p551
S'Post Transaction Details,[3.1.4.1] Post Transaction Details'
p552
sVbr_251.csv
p553
S'Generate KPI report: By Location (UI),[5.2.5.1] Generate KPI report: By Location (UI)'
p554
sVbr_117.csv
p555
S'"Send data to: DLR Foods, Outdoor Vending (Heimlich, Herbie)","[1.5.7.1] Send data to: DLR Foods, Outdoor Vending (Heimlich, Herbie)"'
p556
sVbr_192.csv
p557
S'Guest ID must include: RRN/CC Token to identify Guest (UI t-log),[1.6.2.1] Guest ID must include: RRN/CC Token to identify Guest (UI t-log)'
p558
sVbr_2.csv
p559
S' Map summary and transaction level based on rules,[1.3.2.2]  Map summary and transaction level based on rules'
p560
sVbr_273.csv
p561
S'Send corrected data to FOH based on predetermined type,[4.1.4.2] Send corrected data to FOH based on predetermined type'
p562
sVbr_135.csv
p563
S'Verify status File in GL (SAP) (UI),[3.2.3.3] Verify status File in GL (SAP) (UI)'
p564
sVbr_94.csv
p565
S'Generate FBDW RAP File,[1.1.3.17] Generate FBDW RAP File'
p566
sVbr_227.csv
p567
S'Run report providing reconciliation controls on inbound and outbound transactions (UI),[5.1.3.2] Run report providing reconciliation controls on inbound and outbound transactions (UI)'
p568
sVbr_284.csv
p569
S'Provide automatic filters of Bad/Duplicate Data,[8.1.2.1] Provide automatic filters of Bad/Duplicate Data'
p570
sVbr_151.csv
p571
S'Transaction edit functionality must: allow for Adjustment(s) (UI t-log),[1.4.4.4] Transaction edit functionality must: allow for Adjustment(s) (UI t-log)'
p572
sVbr_197.csv
p573
S'Import new retail locations (UI),[1.4.5.1] Import new retail locations (UI)'
p574
sVbr_294.csv
p575
S'Provide for error cleansing by Materiality (UI),[9.2.3.4] Provide for error cleansing by Materiality (UI)'
p576
sVbr_368.csv
p577
S'NUM MONTHS,'
p578
sVbr_55.csv
p579
S'Perform Transaction Type Checks,[9.1.1.3] Perform Transaction Type Checks'
p580
sVbr_196.csv
p581
S'Link Guest ID and Unique ID - Linking and aligning key data points,[8.3.3.1] Link Guest ID and Unique ID - Linking and aligning key data points'
p582
sVbr_285.csv
p583
S'Surface data filtered out for errors/issues,[8.1.2.2] Surface data filtered out for errors/issues'
p584
sVbr_363.csv
p585
S'Solution must have capacity to process Other  - not included in estimate,[8.4.1.6] Solution must have capacity to process Other  - not included in estimate'
p586
sVbr_223.csv
p587
S'Create report for Revenue vs Deposits Reporting (UI),[5.1.2.1] Create report for Revenue vs Deposits Reporting (UI)'
p588
sVbr_50.csv
p589
S'Check for duplicates,[8.1.1.1] Check for duplicates'
p590
sVbr_315.csv
p591
S'Ensure compliant with Safe Harbor Data compliance rules for interfacing,[6.5.3.1] Ensure compliant with Safe Harbor Data compliance rules for interfacing'
p592
sVbr_352.csv
p593
S'Provide a testing sandbox (not live) system to mirror live system for various testing needs (UI),[6.2.1.1] Provide a testing sandbox (not live) system to mirror live system for various testing needs (UI)'
p594
sVbr_203.csv
p595
S'Enable Cash Reporting (UI),[3.1.2.4] Enable Cash Reporting (UI)'
p596
sVbr_255.csv
p597
S'Configure Outbound Batch Job segregated by Inbound System,[3.2.1.2] Configure Outbound Batch Job segregated by Inbound System'
p598
sVbr_182.csv
p599
S'"Transaction ID must include: Reservation Number, Wholesales, Group ID, etc. (UI t-log)","[1.6.1.1] Transaction ID must include: Reservation Number, Wholesales, Group ID, etc. (UI t-log)"'
p600
sVbr_247.csv
p601
S'Generate KPI report: Exceptions cleared (UI),[5.2.3.2] Generate KPI report: Exceptions cleared (UI)'
p602
sVbr_177.csv
p603
S'Apply Business Rules based on various criteria (UI),[2.3.2.2] Apply Business Rules based on various criteria (UI)'
p604
sVbr_185.csv
p605
S'Transaction ID must include: Date-Ticket-Group-Terminal-Transaction (Dupe??) (UI t-log),[1.6.1.4] Transaction ID must include: Date-Ticket-Group-Terminal-Transaction (Dupe??) (UI t-log)'
p606
sVbr_214.csv
p607
S'Batch or Daily report to call out variances between interface files,[4.2.1.1] Batch or Daily report to call out variances between interface files'
p608
sVbr_155.csv
p609
S'Enable automated posting of Journal Entries to SAP,[1.3.1.1] Enable automated posting of Journal Entries to SAP'
p610
sVbr_15.csv
p611
S'Identify Merchandise (UI maintenance table),[1.4.4.1] Identify Merchandise (UI maintenance table)'
p612
sVbr_299.csv
p613
S'Provide Log-on view page/website/dashboard to business users to enable user to view errors upon log-in to system (UI),[9.3.2.2] Provide Log-on view page/website/dashboard to business users to enable user to view errors upon log-in to system (UI)'
p614
sVbr_152.csv
p615
S'"Transaction edit functionality must: allow for attached, appended and matched to each Transaction ID (UI t-log)","[1.4.5.5] Transaction edit functionality must: allow for attached, appended and matched to each Transaction ID (UI t-log)"'
p616
sVbr_69.csv
p617
S'"Update SAP Location Information (CO, BA, CC, PC, Org, Retail Cust) (UI)","[2.3.4.1] Update SAP Location Information (CO, BA, CC, PC, Org, Retail Cust) (UI)"'
p618
sVbr_310.csv
p619
S'Provide a solution to allow: Token RRN level of data for daily and/or ad hoc Guest spend Analytics (UI t-log),[5.3.3.2] Provide a solution to allow: Token RRN level of data for daily and/or ad hoc Guest spend Analytics (UI t-log)'
p620
sVbr_275.csv
p621
S'Handle data recon timing differences due to batch vs detailed,[4.1.4.4] Handle data recon timing differences due to batch vs detailed'
p622
sVbr_210.csv
p623
S'Enable Batch and User Interface at SKU level to enable bulk item maintenance for tax changes,[6.1.1.5] Enable Batch and User Interface at SKU level to enable bulk item maintenance for tax changes'
p624
sVbr_23.csv
p625
S'Identify Other (UI maintenance table),[1.4.4.9] Identify Other (UI maintenance table)'
p626
sVbr_235.csv
p627
S'Create report Exception report by system (UI),[5.1.6.4] Create report Exception report by system (UI)'
p628
sVbr_68.csv
p629
S'"Provide business centralization of accounting coding, mapping logic, and maintenance changes","[1.1.2.5] Provide business centralization of accounting coding, mapping logic, and maintenance changes"'
p630
sVbr_93.csv
p631
S'Generate FBDW Transaction,[1.1.3.16] Generate FBDW Transaction'
p632
sVbr_187.csv
p633
S'"Create Data flow by transaction, linked with Unique ID from FOH through to CDR (UI t-log)","[8.5.2.1] Create Data flow by transaction, linked with Unique ID from FOH through to CDR (UI t-log)"'
p634
sVbr_165.csv
p635
S'Send File out interface,[3.1.4.5] Send File out interface'
p636
sVbr_274.csv
p637
S'Handle data recon timing differences due to POS offline,[4.1.4.3] Handle data recon timing differences due to POS offline'
p638
sVbr_36.csv
p639
S'Provide Encrypt/decrypt sensitive data using stored keys,[7.2.2.3] Provide Encrypt/decrypt sensitive data using stored keys'
p640
sVbr_130.csv
p641
S'Validate completeness of batch (UI),[3.2.2.1] Validate completeness of batch (UI)'
p642
sVbr_91.csv
p643
S'Generate D3 Data Warehouse,[1.1.3.14] Generate D3 Data Warehouse'
p644
sVbr_234.csv
p645
S'Create report Exception clearing report (UI),[5.1.6.3] Create report Exception clearing report (UI)'
p646
sVbr_249.csv
p647
S'Generate KPI report: settled (UI),[5.2.4.1] Generate KPI report: settled (UI)'
p648
sVbr_78.csv
p649
S'Generate FI008 Cast Serving Cast"'
p650
sVbr_105.csv
p651
S'Generate Participant Credit through Gold Data to FDMS,[1.1.3.28] Generate Participant Credit through Gold Data to FDMS'
p652
sVbr_179.csv
p653
S'"Unique Transaction Identifier across systems must identify: Reservation Number, Wholesales, Group ID, etc. (UI t-log)","[1.4.1.1] Unique Transaction Identifier across systems must identify: Reservation Number, Wholesales, Group ID, etc. (UI t-log)"'
p654
sVbr_296.csv
p655
S'Provide user capability to fix data based on a set of rules to assure that the business process remains  compliant (rules to be provided during detailed requirements),[9.3.1.2] Provide user capability to fix data based on a set of rules to assure that the business process remains  compliant (rules to be provided during detailed requirements)'
p656
sVbr_256.csv
p657
S'Create a Batch Indexing of unique Transaction IDs,[3.2.1.3] Create a Batch Indexing of unique Transaction IDs'
p658
sVbr_11.csv
p659
S'Distinguish Destination Geography/ Tax Jurisdiction/ Trading Partners ,[1.1.1.9] Distinguish Destination Geography/ Tax Jurisdiction/ Trading Partners '
p660
sVbr_158.csv
p661
S'Record intercompany transactions,[2.2.2.1] Record intercompany transactions'
p662
sVbr_357.csv
p663
S'FOH Systems (various) (UI t-log),[8.5.1.1] FOH Systems (various) (UI t-log)'
p664
sVbr_121.csv
p665
S'Validate Payment Types (UI exceptions),[3.1.1.1] Validate Payment Types (UI exceptions)'
p666
sVbr_268.csv
p667
S'Identify and communicate variances in reconciliation between Reporting to SAP (UI),[4.1.3.5] Identify and communicate variances in reconciliation between Reporting to SAP (UI)'
p668
sVbr_348.csv
p669
S'Process WDW Participant Charity,'
p670
sVbr_343.csv
p671
S'Process WDW Food Clarity"'
p672
sVbr_148.csv
p673
S'Transaction edit functionality must identify: Original transaction (UI t-log),[1.4.3.1] Transaction edit functionality must identify: Original transaction (UI t-log)'
p674
sVbr_233.csv
p675
S'Create report Exception Report by type (UI),[5.1.6.2] Create report Exception Report by type (UI)'
p676
sVbr_191.csv
p677
S'Create Guest ID for Rev Management and Guest Personalization (duplicate?),[1.4.7.4] Create Guest ID for Rev Management and Guest Personalization (duplicate?)'
p678
sVbr_4.csv
p679
S'Translate inbound feeds to SAP data for Posting,[3.1.3.1] Translate inbound feeds to SAP data for Posting'
p680
sVbr_342.csv
p681
S'Process DLR Food,"[8.4.1.15] Process WDW Food'
p682
sVbr_300.csv
p683
S'Track previous exceptions occurred (UI),[9.3.3.1] Track previous exceptions occurred (UI)'
p684
sVbr_159.csv
p685
S'Track intercompany transactions,[2.2.3.1] Track intercompany transactions'
p686
sVbr_320.csv
p687
S'Replace FOH feed to Data Warehouse,[8.2.1.4] Replace FOH feed to Data Warehouse'
p688
sVbr_38.csv
p689
S'Provide required Access Levels per SOX,[7.3.1.2] Provide required Access Levels per SOX'
p690
sVbr_120.csv
p691
S'Create SAP Accounting Interface File,[2.3.4.4] Create SAP Accounting Interface File'
p692
sVbr_168.csv
p693
S'Post Refund,[3.1.8.5] Post Refund'
p694
sVbr_12.csv
p695
S'Sync hierarchies daily with SAP,[1.2.3.1] Sync hierarchies daily with SAP'
p696
sVbr_358.csv
p697
S'Stratus (UI t-log),[8.5.1.2] Stratus (UI t-log)'
p698
sVbr_167.csv
p699
S'Process inventory adjustmnet,[3.1.8.4] Process inventory adjustmnet'
p700
sVbr_171.csv
p701
S'Include the Destination Geography field per transaction (necessary for automated journal entries) (UI t-log),[6.5.5.1] Include the Destination Geography field per transaction (necessary for automated journal entries) (UI t-log)'
p702
sVbr_211.csv
p703
S'Create data glossary in Informatica,[1.4.9.1] Create data glossary in Informatica'
p704
sVbr_262.csv
p705
S'Enable reconciliation by Ticket Availability,[4.1.2.6] Enable reconciliation by Ticket Availability'
p706
sVbr_101.csv
p707
S'Generate Lilo Repost,[1.1.3.24] Generate Lilo Repost'
p708
sVbr_113.csv
p709
S'"Send data to: CDR, FDM, D3, SAP HANA (duplicate?)","[1.5.3.1] Send data to: CDR, FDM, D3, SAP HANA (duplicate?)"'
p710
sVbr_208.csv
p711
S'Add new RTP inventory item (UI),[6.1.1.3] Add new RTP inventory item (UI)'
p712
sVbr_258.csv
p713
S'Reconcile at the transaction level between systems (UI),[4.1.1.1] Reconcile at the transaction level between systems (UI)'
p714
sVbr_353.csv
p715
S'"Sandbox code configuration needs to be refreshed/updated at certain frequencies to match the live system, in order to enable accurate testing","[6.2.1.2] Sandbox code configuration needs to be refreshed/updated at certain frequencies to match the live system, in order to enable accurate testing"'
p716
sVbr_145.csv
p717
S'Submit requests for leader approval,[1.2.1.3] Submit requests for leader approval'
p718
sVbr_82.csv
p719
S'Generate FI001 to send to SAP,[1.1.3.5] Generate FI001 to send to SAP'
p720
sVbr_157.csv
p721
S'Configure business rules for Revenue Recognition activity (UI t-log),[2.2.1.1] Configure business rules for Revenue Recognition activity (UI t-log)'
p722
sVbr_354.csv
p723
S'Provide for automated testing capability based upon standard recurring test sets,[6.2.3.1] Provide for automated testing capability based upon standard recurring test sets'
p724
sVbr_303.csv
p725
S'Generate report: Tender Analytics (UI),[5.3.1.3] Generate report: Tender Analytics (UI)'
p726
sVbr_290.csv
p727
S'Store and maintain original inbound interfaces to ensure data integrity,[9.2.2.1] Store and maintain original inbound interfaces to ensure data integrity'
p728
sVbr_230.csv
p729
S'Provide current Status Processing (UI),[5.1.5.1] Provide current Status Processing (UI)'
p730
sVbr_309.csv
p731
S'Provide a reporting solution to allow: Guest Data analysis pulled in at the One ID level for ad hoc analytic reporting (UI),[5.3.3.1] Provide a reporting solution to allow: Guest Data analysis pulled in at the One ID level for ad hoc analytic reporting (UI)'
p732
sVbr_228.csv
p733
S'Auto Run Reports for Users Based on access (UI),[5.1.4.1] Auto Run Reports for Users Based on access (UI)'
p734
sVbr_176.csv
p735
S'Configure Business Rules based on Transaction Type (UI),[2.3.2.1] Configure Business Rules based on Transaction Type (UI)'
p736
sVbr_62.csv
p737
S'Configure Coupon Check exceptions,[9.1.2.6] Configure Coupon Check exceptions'
p738
s.